target datalayout = "e-m:e-p270:32:32-p271:32:32-p272:64:64-i64:64-i128:128-f80:128-n8:16:32:64-S128"
target triple = "x86_64-pc-linux-gnu"

%struct.H5O_link_t = type { i32, i8, i64, i32, ptr, %union.anon }
%union.anon = type { %struct.H5O_link_ud_t }
%struct.H5O_link_ud_t = type { ptr, i64 }
%struct.H5G_loc_t = type { ptr, ptr }
%struct.H5O_loc_t = type { ptr, i64, i8 }
%struct.H5O_link_hard_t = type { i64 }
%struct.H5G_name_t = type { ptr, ptr, i32 }

@.str = private unnamed_addr constant [100 x i8] c"generated/home/dtcxzyw/WorkSpace/Projects/compilers/llvm-opt-benchmark/bench/hdf5/hdf5/src/H5Lint.c\00", align 1
@H5E_LINK_g = external global i64, align 8
@H5E_CANTINIT_g = external global i64, align 8
@.str.5 = private unnamed_addr constant [36 x i8] c"unable to create new link to object\00", align 1
@__func__.H5L__create_hard = private unnamed_addr constant [17 x i8] c"H5L__create_hard\00", align 1
@H5E_BADVALUE_g = external global i64, align 8
@.str.6 = private unnamed_addr constant [21 x i8] c"can't normalize name\00", align 1
@H5E_NOTFOUND_g = external global i64, align 8
@.str.7 = private unnamed_addr constant [24 x i8] c"source object not found\00", align 1
@H5E_CANTRELEASE_g = external global i64, align 8
@.str.8 = private unnamed_addr constant [24 x i8] c"unable to free location\00", align 1

; Function Attrs: nounwind uwtable
define i32 @H5L__create_hard(ptr noundef %0, ptr noundef %1, ptr noundef %2, ptr noundef %3, i64 noundef %4) #0 {
  %6 = alloca ptr, align 8
  %7 = alloca ptr, align 8
  %8 = alloca ptr, align 8
  %9 = alloca ptr, align 8
  %10 = alloca i64, align 8
  %11 = alloca ptr, align 8
  %12 = alloca ptr, align 8
  %13 = alloca %struct.H5O_link_t, align 8
  %14 = alloca %struct.H5G_loc_t, align 8
  %15 = alloca %struct.H5G_name_t, align 8
  %16 = alloca %struct.H5O_loc_t, align 8
  %17 = alloca i8, align 1
  %18 = alloca i32, align 4
  %19 = alloca i8, align 1
  store ptr %0, ptr %6, align 8
  store ptr %1, ptr %7, align 8
  store ptr %2, ptr %8, align 8
  store ptr %3, ptr %9, align 8
  store i64 %4, ptr %10, align 8
  store ptr null, ptr %11, align 8
  store ptr null, ptr %12, align 8
  store i8 0, ptr %17, align 1
  store i32 0, ptr %18, align 4
  store i8 0, ptr %19, align 1
  %20 = load ptr, ptr %7, align 8
  %21 = call ptr @H5G_normalize(ptr noundef %20)
  store ptr %21, ptr %11, align 8
  %22 = icmp eq ptr %21, null
  br i1 %22, label %23, label %38

23:                                               ; preds = %5
  br label %24

24:                                               ; preds = %23
  br label %25

25:                                               ; preds = %24
  br label %26

26:                                               ; preds = %25
  %27 = load i64, ptr @H5E_LINK_g, align 8
  %28 = load i64, ptr @H5E_BADVALUE_g, align 8
  %29 = call i32 (ptr, ptr, i32, i64, i64, ptr, ...) @H5E_printf_stack(ptr noundef @.str, ptr noundef @__func__.H5L__create_hard, i32 noundef 774, i64 noundef %27, i64 noundef %28, ptr noundef @.str.6)
  br label %30

30:                                               ; preds = %26
  store i8 1, ptr %19, align 1
  %31 = load i8, ptr %19, align 1
  %32 = trunc i8 %31 to i1
  %33 = zext i1 %32 to i8
  store i8 %33, ptr %19, align 1
  br label %34

34:                                               ; preds = %30
  br label %35

35:                                               ; preds = %34
  store i32 -1, ptr %18, align 4
  br label %95

36:                                               ; No predecessors!
  br label %37

37:                                               ; preds = %36
  br label %38

38:                                               ; preds = %37, %5
  %39 = getelementptr inbounds %struct.H5O_link_t, ptr %13, i32 0, i32 0
  store i32 0, ptr %39, align 8
  %40 = getelementptr inbounds %struct.H5G_loc_t, ptr %14, i32 0, i32 1
  store ptr %15, ptr %40, align 8
  %41 = getelementptr inbounds %struct.H5G_loc_t, ptr %14, i32 0, i32 0
  store ptr %16, ptr %41, align 8
  %42 = call i32 @H5G_loc_reset(ptr noundef %14)
  %43 = load ptr, ptr %6, align 8
  %44 = load ptr, ptr %11, align 8
  %45 = call i32 @H5G_loc_find(ptr noundef %43, ptr noundef %44, ptr noundef %14)
  %46 = icmp slt i32 %45, 0
  br i1 %46, label %47, label %62

47:                                               ; preds = %38
  br label %48

48:                                               ; preds = %47
  br label %49

49:                                               ; preds = %48
  br label %50

50:                                               ; preds = %49
  %51 = load i64, ptr @H5E_LINK_g, align 8
  %52 = load i64, ptr @H5E_NOTFOUND_g, align 8
  %53 = call i32 (ptr, ptr, i32, i64, i64, ptr, ...) @H5E_printf_stack(ptr noundef @.str, ptr noundef @__func__.H5L__create_hard, i32 noundef 784, i64 noundef %51, i64 noundef %52, ptr noundef @.str.7)
  br label %54

54:                                               ; preds = %50
  store i8 1, ptr %19, align 1
  %55 = load i8, ptr %19, align 1
  %56 = trunc i8 %55 to i1
  %57 = zext i1 %56 to i8
  store i8 %57, ptr %19, align 1
  br label %58

58:                                               ; preds = %54
  br label %59

59:                                               ; preds = %58
  store i32 -1, ptr %18, align 4
  br label %95

60:                                               ; No predecessors!
  br label %61

61:                                               ; preds = %60
  br label %62

62:                                               ; preds = %61, %38
  store i8 1, ptr %17, align 1
  %63 = getelementptr inbounds %struct.H5G_loc_t, ptr %14, i32 0, i32 0
  %64 = load ptr, ptr %63, align 8
  %65 = getelementptr inbounds %struct.H5O_loc_t, ptr %64, i32 0, i32 1
  %66 = load i64, ptr %65, align 8
  %67 = getelementptr inbounds %struct.H5O_link_t, ptr %13, i32 0, i32 5
  %68 = getelementptr inbounds %struct.H5O_link_hard_t, ptr %67, i32 0, i32 0
  store i64 %66, ptr %68, align 8
  %69 = getelementptr inbounds %struct.H5G_loc_t, ptr %14, i32 0, i32 0
  %70 = load ptr, ptr %69, align 8
  %71 = getelementptr inbounds %struct.H5O_loc_t, ptr %70, i32 0, i32 0
  %72 = load ptr, ptr %71, align 8
  store ptr %72, ptr %12, align 8
  %73 = load ptr, ptr %8, align 8
  %74 = load ptr, ptr %9, align 8
  %75 = load ptr, ptr %12, align 8
  %76 = load i64, ptr %10, align 8
  %77 = call i32 @H5L__create_real(ptr noundef %73, ptr noundef %74, ptr noundef null, ptr noundef %75, ptr noundef %13, ptr noundef null, i64 noundef %76)
  %78 = icmp slt i32 %77, 0
  br i1 %78, label %79, label %94

79:                                               ; preds = %62
  br label %80

80:                                               ; preds = %79
  br label %81

81:                                               ; preds = %80
  br label %82

82:                                               ; preds = %81
  %83 = load i64, ptr @H5E_LINK_g, align 8
  %84 = load i64, ptr @H5E_CANTINIT_g, align 8
  %85 = call i32 (ptr, ptr, i32, i64, i64, ptr, ...) @H5E_printf_stack(ptr noundef @.str, ptr noundef @__func__.H5L__create_hard, i32 noundef 796, i64 noundef %83, i64 noundef %84, ptr noundef @.str.5)
  br label %86

86:                                               ; preds = %82
  store i8 1, ptr %19, align 1
  %87 = load i8, ptr %19, align 1
  %88 = trunc i8 %87 to i1
  %89 = zext i1 %88 to i8
  store i8 %89, ptr %19, align 1
  br label %90

90:                                               ; preds = %86
  br label %91

91:                                               ; preds = %90
  store i32 -1, ptr %18, align 4
  br label %95

92:                                               ; No predecessors!
  br label %93

93:                                               ; preds = %92
  br label %94

94:                                               ; preds = %93, %62
  br label %95

95:                                               ; preds = %94, %91, %59, %35
  %96 = load i8, ptr %17, align 1
  %97 = trunc i8 %96 to i1
  br i1 %97, label %98, label %115

98:                                               ; preds = %95
  %99 = call i32 @H5G_loc_free(ptr noundef %14)
  %100 = icmp slt i32 %99, 0
  br i1 %100, label %101, label %114

101:                                              ; preds = %98
  br label %102

102:                                              ; preds = %101
  br label %103

103:                                              ; preds = %102
  br label %104

104:                                              ; preds = %103
  %105 = load i64, ptr @H5E_LINK_g, align 8
  %106 = load i64, ptr @H5E_CANTRELEASE_g, align 8
  %107 = call i32 (ptr, ptr, i32, i64, i64, ptr, ...) @H5E_printf_stack(ptr noundef @.str, ptr noundef @__func__.H5L__create_hard, i32 noundef 802, i64 noundef %105, i64 noundef %106, ptr noundef @.str.8)
  br label %108

108:                                              ; preds = %104
  store i8 1, ptr %19, align 1
  %109 = load i8, ptr %19, align 1
  %110 = trunc i8 %109 to i1
  %111 = zext i1 %110 to i8
  store i8 %111, ptr %19, align 1
  br label %112

112:                                              ; preds = %108
  store i32 -1, ptr %18, align 4
  br label %113

113:                                              ; preds = %112
  br label %114

114:                                              ; preds = %113, %98
  br label %115

115:                                              ; preds = %114, %95
  %116 = load ptr, ptr %11, align 8
  %117 = icmp ne ptr %116, null
  br i1 %117, label %118, label %121

118:                                              ; preds = %115
  %119 = load ptr, ptr %11, align 8
  %120 = call ptr @H5MM_xfree(ptr noundef %119)
  br label %121

121:                                              ; preds = %118, %115
  %122 = load i32, ptr %18, align 4
  ret i32 %122
}