; Function Attrs: nounwind uwtable
define range(i32 -1, 1) i32 @H5L__create_hard(ptr noundef %0, ptr noundef %1, ptr noundef %2, ptr noundef %3, i64 noundef %4) local_unnamed_addr #0 {
  %6 = alloca %struct.H5O_link_t, align 8
  %7 = alloca %struct.H5G_loc_t, align 8
  %8 = alloca %struct.H5G_name_t, align 8
  %9 = alloca %struct.H5O_loc_t, align 8
  %10 = tail call ptr @H5G_normalize(ptr noundef %1) #10
  %11 = icmp eq ptr %10, null
  br i1 %11, label %40, label %12

12:                                               ; preds = %5
  store i32 0, ptr %6, align 8
  %13 = getelementptr inbounds i8, ptr %7, i64 8
  store ptr %8, ptr %13, align 8
  store ptr %9, ptr %7, align 8
  %14 = call i32 @H5G_loc_reset(ptr noundef nonnull %7) #10
  %15 = call i32 @H5G_loc_find(ptr noundef %0, ptr noundef nonnull %10, ptr noundef nonnull %7) #10
  %16 = icmp slt i32 %15, 0
  br i1 %16, label %17, label %21

17:                                               ; preds = %12
  %18 = load i64, ptr @H5E_LINK_g, align 8
  %19 = load i64, ptr @H5E_NOTFOUND_g, align 8
  %20 = call i32 (ptr, ptr, i32, i64, i64, ptr, ...) @H5E_printf_stack(ptr noundef nonnull @.str, ptr noundef nonnull @__func__.H5L__create_hard, i32 noundef 784, i64 noundef %18, i64 noundef %19, ptr noundef nonnull @.str.7) #10
  br label %44

21:                                               ; preds = %12
  %22 = load ptr, ptr %7, align 8
  %23 = getelementptr inbounds i8, ptr %22, i64 8
  %24 = load i64, ptr %23, align 8
  %25 = getelementptr inbounds i8, ptr %6, i64 32
  store i64 %24, ptr %25, align 8
  %26 = load ptr, ptr %22, align 8
  %27 = call fastcc i32 @H5L__create_real(ptr noundef %2, ptr noundef %3, ptr noundef null, ptr noundef %26, ptr noundef nonnull %6, ptr noundef null, i64 noundef %4)
  %28 = icmp slt i32 %27, 0
  br i1 %28, label %29, label %33

29:                                               ; preds = %21
  %30 = load i64, ptr @H5E_LINK_g, align 8
  %31 = load i64, ptr @H5E_CANTINIT_g, align 8
  %32 = call i32 (ptr, ptr, i32, i64, i64, ptr, ...) @H5E_printf_stack(ptr noundef nonnull @.str, ptr noundef nonnull @__func__.H5L__create_hard, i32 noundef 796, i64 noundef %30, i64 noundef %31, ptr noundef nonnull @.str.5) #10
  br label %33

33:                                               ; preds = %29, %21
  %.0.ph = phi i32 [ 0, %21 ], [ -1, %29 ]
  %34 = call i32 @H5G_loc_free(ptr noundef nonnull %7) #10
  %35 = icmp slt i32 %34, 0
  br i1 %35, label %36, label %44

36:                                               ; preds = %33
  %37 = load i64, ptr @H5E_LINK_g, align 8
  %38 = load i64, ptr @H5E_CANTRELEASE_g, align 8
  %39 = call i32 (ptr, ptr, i32, i64, i64, ptr, ...) @H5E_printf_stack(ptr noundef nonnull @.str, ptr noundef nonnull @__func__.H5L__create_hard, i32 noundef 802, i64 noundef %37, i64 noundef %38, ptr noundef nonnull @.str.8) #10
  br label %44

40:                                               ; preds = %5
  %41 = load i64, ptr @H5E_LINK_g, align 8
  %42 = load i64, ptr @H5E_BADVALUE_g, align 8
  %43 = tail call i32 (ptr, ptr, i32, i64, i64, ptr, ...) @H5E_printf_stack(ptr noundef nonnull @.str, ptr noundef nonnull @__func__.H5L__create_hard, i32 noundef 774, i64 noundef %41, i64 noundef %42, ptr noundef nonnull @.str.6) #10
  br label %46

44:                                               ; preds = %17, %33, %36
  %.1.ph = phi i32 [ -1, %17 ], [ %.0.ph, %33 ], [ -1, %36 ]
  %45 = call ptr @H5MM_xfree(ptr noundef nonnull %10) #10
  br label %46

46:                                               ; preds = %40, %44
  %.124 = phi i32 [ %.1.ph, %44 ], [ -1, %40 ]
  ret i32 %.124
}